target datalayout = "e-m:e-p270:32:32-p271:32:32-p272:64:64-i64:64-i128:128-f80:128-n8:16:32:64-S128"
target triple = "x86_64-pc-linux-gnu"

%struct._XSettingsClient = type { ptr, i32, ptr, ptr, ptr, ptr, ptr, i64, i64, i64, i64, ptr }
%struct._XSettingsList = type { ptr, ptr }
%struct._XSettingsSetting = type { ptr, i32, %union.anon.1, i64 }
%union.anon.1 = type { ptr }

; Function Attrs: nounwind uwtable
define hidden ptr @xsettings_list_lookup(ptr noundef %0, ptr noundef %1) #0 {
  %3 = alloca ptr, align 8
  %4 = alloca ptr, align 8
  %5 = alloca ptr, align 8
  %6 = alloca ptr, align 8
  %7 = alloca i32, align 4
  store ptr %0, ptr %4, align 8
  store ptr %1, ptr %5, align 8
  call void @llvm.lifetime.start.p0(i64 8, ptr %6) #6
  %8 = load ptr, ptr %4, align 8
  store ptr %8, ptr %6, align 8
  br label %9

9:                                                ; preds = %25, %2
  %10 = load ptr, ptr %6, align 8
  %11 = icmp ne ptr %10, null
  br i1 %11, label %12, label %29

12:                                               ; preds = %9
  %13 = load ptr, ptr %5, align 8
  %14 = load ptr, ptr %6, align 8
  %15 = getelementptr inbounds nuw %struct._XSettingsList, ptr %14, i32 0, i32 0
  %16 = load ptr, ptr %15, align 8
  %17 = getelementptr inbounds nuw %struct._XSettingsSetting, ptr %16, i32 0, i32 0
  %18 = load ptr, ptr %17, align 8
  %19 = call i32 @strcmp(ptr noundef %13, ptr noundef %18) #8
  %20 = icmp eq i32 %19, 0
  br i1 %20, label %21, label %25

21:                                               ; preds = %12
  %22 = load ptr, ptr %6, align 8
  %23 = getelementptr inbounds nuw %struct._XSettingsList, ptr %22, i32 0, i32 0
  %24 = load ptr, ptr %23, align 8
  store ptr %24, ptr %3, align 8
  store i32 1, ptr %7, align 4
  br label %30

25:                                               ; preds = %12
  %26 = load ptr, ptr %6, align 8
  %27 = getelementptr inbounds nuw %struct._XSettingsList, ptr %26, i32 0, i32 1
  %28 = load ptr, ptr %27, align 8
  store ptr %28, ptr %6, align 8
  br label %9, !llvm.loop !5

29:                                               ; preds = %9
  store ptr null, ptr %3, align 8
  store i32 1, ptr %7, align 4
  br label %30

30:                                               ; preds = %29, %21
  call void @llvm.lifetime.end.p0(i64 8, ptr %6) #6
  %31 = load ptr, ptr %3, align 8
  ret ptr %31
}

; Function Attrs: nounwind uwtable
define hidden i32 @xsettings_client_get_setting(ptr noundef %0, ptr noundef %1, ptr noundef %2) #0 {
  %4 = alloca i32, align 4
  %5 = alloca ptr, align 8
  %6 = alloca ptr, align 8
  %7 = alloca ptr, align 8
  %8 = alloca ptr, align 8
  %9 = alloca i32, align 4
  store ptr %0, ptr %5, align 8
  store ptr %1, ptr %6, align 8
  store ptr %2, ptr %7, align 8
  call void @llvm.lifetime.start.p0(i64 8, ptr %8) #6
  %10 = load ptr, ptr %5, align 8
  %11 = getelementptr inbounds nuw %struct._XSettingsClient, ptr %10, i32 0, i32 11
  %12 = load ptr, ptr %11, align 8
  %13 = load ptr, ptr %6, align 8
  %14 = call ptr @xsettings_list_lookup(ptr noundef %12, ptr noundef %13)
  store ptr %14, ptr %8, align 8
  %15 = load ptr, ptr %8, align 8
  %16 = icmp ne ptr %15, null
  br i1 %16, label %17, label %25

17:                                               ; preds = %3
  %18 = load ptr, ptr %8, align 8
  %19 = call ptr @xsettings_setting_copy(ptr noundef %18)
  %20 = load ptr, ptr %7, align 8
  store ptr %19, ptr %20, align 8
  %21 = load ptr, ptr %7, align 8
  %22 = load ptr, ptr %21, align 8
  %23 = icmp ne ptr %22, null
  %24 = select i1 %23, i32 0, i32 1
  store i32 %24, ptr %4, align 4
  store i32 1, ptr %9, align 4
  br label %26

25:                                               ; preds = %3
  store i32 4, ptr %4, align 4
  store i32 1, ptr %9, align 4
  br label %26

26:                                               ; preds = %25, %17
  call void @llvm.lifetime.end.p0(i64 8, ptr %8) #6
  %27 = load i32, ptr %4, align 4
  ret i32 %27
}