; Function Attrs: nounwind uwtable
define hidden range(i32 0, 5) i32 @xsettings_client_get_setting(ptr noundef readonly captures(none) %0, ptr noundef readonly captures(none) %1, ptr noundef writeonly captures(none) %2) local_unnamed_addr #0 {
  %4 = getelementptr inbounds nuw i8, ptr %0, i64 88
  %5 = load ptr, ptr %4, align 8
  %.not8.i = icmp eq ptr %5, null
  br i1 %.not8.i, label %xsettings_list_lookup.exit.thread, label %.lr.ph.i

.lr.ph.i:                                         ; preds = %3, %10
  %.09.i = phi ptr [ %12, %10 ], [ %5, %3 ]
  %6 = load ptr, ptr %.09.i, align 8
  %7 = load ptr, ptr %6, align 8
  %8 = tail call i32 @strcmp(ptr noundef nonnull readonly dereferenceable(1) %1, ptr noundef nonnull dereferenceable(1) %7) #16
  %9 = icmp eq i32 %8, 0
  br i1 %9, label %xsettings_list_lookup.exit, label %10

10:                                               ; preds = %.lr.ph.i
  %11 = getelementptr inbounds nuw i8, ptr %.09.i, i64 8
  %12 = load ptr, ptr %11, align 8
  %.not.i = icmp eq ptr %12, null
  br i1 %.not.i, label %xsettings_list_lookup.exit.thread, label %.lr.ph.i, !llvm.loop !5

xsettings_list_lookup.exit:                       ; preds = %.lr.ph.i
  %13 = tail call ptr @xsettings_setting_copy(ptr noundef nonnull %6)
  store ptr %13, ptr %2, align 8
  %.not7 = icmp eq ptr %13, null
  %14 = zext i1 %.not7 to i32
  br label %xsettings_list_lookup.exit.thread

xsettings_list_lookup.exit.thread:                ; preds = %10, %3, %xsettings_list_lookup.exit
  %.0 = phi i32 [ %14, %xsettings_list_lookup.exit ], [ 4, %3 ], [ 4, %10 ]
  ret i32 %.0
}